target datalayout = "e-m:e-p270:32:32-p271:32:32-p272:64:64-i64:64-i128:128-f80:128-n8:16:32:64-S128"
target triple = "x86_64-pc-linux-gnu"

%struct.rlimit = type { i64, i64 }

@.str = private unnamed_addr constant [37 x i8] c"failed to retrieve thread stack size\00", align 1
@_ZTIN4lean9exceptionE = linkonce_odr constant { ptr, ptr, ptr } { ptr getelementptr inbounds (ptr, ptr @_ZTVN10__cxxabiv120__si_class_type_infoE, i64 2), ptr @_ZTSN4lean9exceptionE, ptr @_ZTIN4lean9throwableE }, comdat, align 8
@_ZN4leanL17g_stack_info_initE = internal thread_local(localexec) global i8 0, align 1
@_ZN4leanL12g_stack_sizeE = internal thread_local(localexec) global i64 0, align 8
@_ZN4leanL12g_stack_baseE = internal thread_local(localexec) global i64 0, align 8
@_ZN4leanL17g_stack_thresholdE = internal thread_local(localexec) global i64 0, align 8
@_ZTIN4lean21stack_space_exceptionE = linkonce_odr constant { ptr, ptr, ptr } { ptr getelementptr inbounds (ptr, ptr @_ZTVN10__cxxabiv120__si_class_type_infoE, i64 2), ptr @_ZTSN4lean21stack_space_exceptionE, ptr @_ZTIN4lean9throwableE }, comdat, align 8
@_ZTVN4lean9exceptionE = linkonce_odr unnamed_addr constant { [5 x ptr] } { [5 x ptr] [ptr null, ptr @_ZTIN4lean9exceptionE, ptr @_ZN4lean9throwableD2Ev, ptr @_ZN4lean9exceptionD0Ev, ptr @_ZNK4lean9throwable4whatEv] }, comdat, align 8

; Function Attrs: mustprogress uwtable
define linkonce_odr hidden void @_ZN4lean9exceptionC2EPKc(ptr noundef nonnull align 8 dereferenceable(40) %0, ptr noundef %1) unnamed_addr #0 comdat align 2 {
  %3 = alloca ptr, align 8
  %4 = alloca ptr, align 8
  store ptr %0, ptr %3, align 8, !tbaa !3
  store ptr %1, ptr %4, align 8, !tbaa !8
  %5 = load ptr, ptr %3, align 8
  %6 = load ptr, ptr %4, align 8, !tbaa !8
  call void @_ZN4lean9throwableC2EPKc(ptr noundef nonnull align 8 dereferenceable(40) %5, ptr noundef %6)
  store ptr getelementptr inbounds inrange(-16, 24) ({ [5 x ptr] }, ptr @_ZTVN4lean9exceptionE, i32 0, i32 0, i32 2), ptr %5, align 8, !tbaa !10
  ret void
}

; Function Attrs: mustprogress uwtable
define hidden void @_ZN4lean27throw_get_stack_size_failedEv() #0 personality ptr @__gxx_personality_v0 {
  %1 = alloca ptr, align 8
  %2 = alloca i32, align 4
  %3 = call ptr @__cxa_allocate_exception(i64 40) #11
  invoke void @_ZN4lean9exceptionC2EPKc(ptr noundef nonnull align 8 dereferenceable(40) %3, ptr noundef @.str)
          to label %4 unwind label %5

4:                                                ; preds = %0
  call void @__cxa_throw(ptr %3, ptr @_ZTIN4lean9exceptionE, ptr @_ZN4lean9throwableD2Ev) #12
  unreachable

5:                                                ; preds = %0
  %6 = landingpad { ptr, i32 }
          cleanup
  %7 = extractvalue { ptr, i32 } %6, 0
  store ptr %7, ptr %1, align 8
  %8 = extractvalue { ptr, i32 } %6, 1
  store i32 %8, ptr %2, align 4
  call void @__cxa_free_exception(ptr %3) #11
  br label %9

9:                                                ; preds = %5
  %10 = load ptr, ptr %1, align 8
  %11 = load i32, ptr %2, align 4
  %12 = insertvalue { ptr, i32 } poison, ptr %10, 0
  %13 = insertvalue { ptr, i32 } %12, i32 %11, 1
  resume { ptr, i32 } %13
}

; Function Attrs: mustprogress uwtable
define noundef i64 @_ZN4lean14get_stack_sizeEb(i1 noundef zeroext %0) #0 {
  %2 = alloca i64, align 8
  %3 = alloca i8, align 1
  %4 = alloca %struct.rlimit, align 8
  %5 = zext i1 %0 to i8
  store i8 %5, ptr %3, align 1, !tbaa !12
  %6 = load i8, ptr %3, align 1, !tbaa !12, !range !14, !noundef !15
  %7 = trunc i8 %6 to i1
  br i1 %7, label %8, label %15

8:                                                ; preds = %1
  call void @llvm.lifetime.start.p0(i64 16, ptr %4) #11
  %9 = call i32 @getrlimit(i32 noundef 3, ptr noundef %4) #11
  %10 = icmp ne i32 %9, 0
  br i1 %10, label %11, label %12

11:                                               ; preds = %8
  call void @_ZN4lean27throw_get_stack_size_failedEv()
  br label %12

12:                                               ; preds = %11, %8
  %13 = getelementptr inbounds nuw %struct.rlimit, ptr %4, i32 0, i32 0
  %14 = load i64, ptr %13, align 8, !tbaa !16
  store i64 %14, ptr %2, align 8
  call void @llvm.lifetime.end.p0(i64 16, ptr %4) #11
  br label %17

15:                                               ; preds = %1
  %16 = call noundef i64 @_ZN4lean7lthread21get_thread_stack_sizeEv()
  store i64 %16, ptr %2, align 8
  br label %17

17:                                               ; preds = %15, %12
  %18 = load i64, ptr %2, align 8
  ret i64 %18
}

; Function Attrs: mustprogress uwtable
define hidden void @_ZN4lean27throw_stack_space_exceptionEPKc(ptr noundef %0) #0 personality ptr @__gxx_personality_v0 {
  %2 = alloca ptr, align 8
  %3 = alloca ptr, align 8
  %4 = alloca i32, align 4
  store ptr %0, ptr %2, align 8, !tbaa !8
  %5 = call ptr @__cxa_allocate_exception(i64 72) #11
  %6 = load ptr, ptr %2, align 8, !tbaa !8
  invoke void @_ZN4lean21stack_space_exceptionC1EPKc(ptr noundef nonnull align 8 dereferenceable(72) %5, ptr noundef %6)
          to label %7 unwind label %8

7:                                                ; preds = %1
  call void @__cxa_throw(ptr %5, ptr @_ZTIN4lean21stack_space_exceptionE, ptr @_ZN4lean21stack_space_exceptionD2Ev) #12
  unreachable

8:                                                ; preds = %1
  %9 = landingpad { ptr, i32 }
          cleanup
  %10 = extractvalue { ptr, i32 } %9, 0
  store ptr %10, ptr %3, align 8
  %11 = extractvalue { ptr, i32 } %9, 1
  store i32 %11, ptr %4, align 4
  call void @__cxa_free_exception(ptr %5) #11
  br label %12

12:                                               ; preds = %8
  %13 = load ptr, ptr %3, align 8
  %14 = load i32, ptr %4, align 4
  %15 = insertvalue { ptr, i32 } poison, ptr %13, 0
  %16 = insertvalue { ptr, i32 } %15, i32 %14, 1
  resume { ptr, i32 } %16
}

; Function Attrs: mustprogress nounwind uwtable
define internal noundef ptr @_ZN4leanL17get_stack_pointerEv() #5 {
  %1 = call ptr @llvm.frameaddress.p0(i32 0)
  ret ptr %1
}

; Function Attrs: mustprogress uwtable
define void @_ZN4lean15save_stack_infoEb(i1 noundef zeroext %0) #0 {
  %2 = alloca i8, align 1
  %3 = zext i1 %0 to i8
  store i8 %3, ptr %2, align 1, !tbaa !12
  %4 = call align 1 ptr @llvm.threadlocal.address.p0(ptr align 1 @_ZN4leanL17g_stack_info_initE)
  store i8 1, ptr %4, align 1, !tbaa !12
  %5 = load i8, ptr %2, align 1, !tbaa !12, !range !14, !noundef !15
  %6 = trunc i8 %5 to i1
  %7 = call noundef i64 @_ZN4lean14get_stack_sizeEb(i1 noundef zeroext %6)
  %8 = call align 8 ptr @llvm.threadlocal.address.p0(ptr align 8 @_ZN4leanL12g_stack_sizeE)
  store i64 %7, ptr %8, align 8, !tbaa !19
  %9 = call noundef ptr @_ZN4leanL17get_stack_pointerEv()
  %10 = ptrtoint ptr %9 to i64
  %11 = call align 8 ptr @llvm.threadlocal.address.p0(ptr align 8 @_ZN4leanL12g_stack_baseE)
  store i64 %10, ptr %11, align 8, !tbaa !19
  %12 = call align 8 ptr @llvm.threadlocal.address.p0(ptr align 8 @_ZN4leanL12g_stack_baseE)
  %13 = load i64, ptr %12, align 8, !tbaa !19
  %14 = add i64 %13, 131072
  %15 = call align 8 ptr @llvm.threadlocal.address.p0(ptr align 8 @_ZN4leanL12g_stack_sizeE)
  %16 = load i64, ptr %15, align 8, !tbaa !19
  %17 = sub i64 %14, %16
  %18 = call align 8 ptr @llvm.threadlocal.address.p0(ptr align 8 @_ZN4leanL17g_stack_thresholdE)
  store i64 %17, ptr %18, align 8, !tbaa !19
  %19 = call align 8 ptr @llvm.threadlocal.address.p0(ptr align 8 @_ZN4leanL17g_stack_thresholdE)
  %20 = load i64, ptr %19, align 8, !tbaa !19
  %21 = call align 8 ptr @llvm.threadlocal.address.p0(ptr align 8 @_ZN4leanL12g_stack_baseE)
  %22 = load i64, ptr %21, align 8, !tbaa !19
  %23 = add i64 %22, 131072
  %24 = icmp ugt i64 %20, %23
  br i1 %24, label %25, label %27

25:                                               ; preds = %1
  %26 = call align 8 ptr @llvm.threadlocal.address.p0(ptr align 8 @_ZN4leanL17g_stack_thresholdE)
  store i64 0, ptr %26, align 8, !tbaa !19
  br label %27

27:                                               ; preds = %25, %1
  ret void
}

; Function Attrs: mustprogress uwtable
define void @_ZN4lean11check_stackEPKc(ptr noundef %0) #0 {
  %2 = alloca ptr, align 8
  %3 = alloca i64, align 8
  store ptr %0, ptr %2, align 8, !tbaa !8
  %4 = call align 1 ptr @llvm.threadlocal.address.p0(ptr align 1 @_ZN4leanL17g_stack_info_initE)
  %5 = load i8, ptr %4, align 1, !tbaa !12, !range !14, !noundef !15
  %6 = trunc i8 %5 to i1
  br i1 %6, label %8, label %7

7:                                                ; preds = %1
  call void @_ZN4lean15save_stack_infoEb(i1 noundef zeroext false)
  br label %8

8:                                                ; preds = %7, %1
  call void @llvm.lifetime.start.p0(i64 8, ptr %3) #11
  %9 = call noundef ptr @_ZN4leanL17get_stack_pointerEv()
  %10 = ptrtoint ptr %9 to i64
  store i64 %10, ptr %3, align 8, !tbaa !19
  %11 = load i64, ptr %3, align 8, !tbaa !19
  %12 = call align 8 ptr @llvm.threadlocal.address.p0(ptr align 8 @_ZN4leanL17g_stack_thresholdE)
  %13 = load i64, ptr %12, align 8, !tbaa !19
  %14 = icmp ult i64 %11, %13
  br i1 %14, label %15, label %17

15:                                               ; preds = %8
  %16 = load ptr, ptr %2, align 8, !tbaa !8
  call void @_ZN4lean27throw_stack_space_exceptionEPKc(ptr noundef %16)
  br label %17

17:                                               ; preds = %15, %8
  call void @llvm.lifetime.end.p0(i64 8, ptr %3) #11
  ret void
}