; Function Attrs: mustprogress uwtable
define void @_ZN4lean11check_stackEPKc(ptr noundef %0) local_unnamed_addr #1 personality ptr @__gxx_personality_v0 {
  %2 = tail call align 1 ptr @llvm.threadlocal.address.p0(ptr align 1 @_ZN4leanL17g_stack_info_initE)
  %3 = load i8, ptr %2, align 1, !tbaa !10, !range !20, !noundef !21
  %4 = trunc nuw i8 %3 to i1
  br i1 %4, label %._crit_edge, label %5

._crit_edge:                                      ; preds = %1
  %.pre = tail call noundef ptr @llvm.frameaddress.p0(i32 0)
  %.pre1 = ptrtoint ptr %.pre to i64
  %.pre3 = tail call align 8 ptr @llvm.threadlocal.address.p0(ptr align 8 @_ZN4leanL17g_stack_thresholdE)
  br label %13

5:                                                ; preds = %1
  store i8 1, ptr %2, align 1, !tbaa !10
  %6 = tail call noundef i64 @_ZN4lean7lthread21get_thread_stack_sizeEv()
  %7 = tail call align 8 ptr @llvm.threadlocal.address.p0(ptr align 8 @_ZN4leanL12g_stack_sizeE)
  store i64 %6, ptr %7, align 8, !tbaa !12
  %8 = tail call noundef ptr @llvm.frameaddress.p0(i32 0)
  %9 = ptrtoint ptr %8 to i64
  %10 = tail call align 8 ptr @llvm.threadlocal.address.p0(ptr align 8 @_ZN4leanL12g_stack_baseE)
  store i64 %9, ptr %10, align 8, !tbaa !12
  %11 = add i64 %9, 131072
  %spec.select.i = tail call i64 @llvm.usub.sat.i64(i64 %11, i64 %6)
  %12 = tail call align 8 ptr @llvm.threadlocal.address.p0(ptr align 8 @_ZN4leanL17g_stack_thresholdE)
  store i64 %spec.select.i, ptr %12, align 8, !tbaa !12
  br label %13

13:                                               ; preds = %._crit_edge, %5
  %.pre-phi4 = phi ptr [ %.pre3, %._crit_edge ], [ %12, %5 ]
  %.pre-phi2 = phi i64 [ %.pre1, %._crit_edge ], [ %9, %5 ]
  %14 = load i64, ptr %.pre-phi4, align 8, !tbaa !12
  %15 = icmp ugt i64 %14, %.pre-phi2
  br i1 %15, label %16, label %21

16:                                               ; preds = %13
  %17 = tail call ptr @__cxa_allocate_exception(i64 72) #14
  invoke void @_ZN4lean21stack_space_exceptionC1EPKc(ptr noundef nonnull align 8 dereferenceable(72) %17, ptr noundef %0)
          to label %18 unwind label %19

18:                                               ; preds = %16
  tail call void @__cxa_throw(ptr nonnull %17, ptr nonnull @_ZTIN4lean21stack_space_exceptionE, ptr nonnull @_ZN4lean21stack_space_exceptionD2Ev) #15
  unreachable

19:                                               ; preds = %16
  %20 = landingpad { ptr, i32 }
          cleanup
  tail call void @__cxa_free_exception(ptr nonnull %17) #14
  resume { ptr, i32 } %20

21:                                               ; preds = %13
  ret void
}